target datalayout = "e-m:e-p270:32:32-p271:32:32-p272:64:64-i64:64-i128:128-f80:128-n8:16:32:64-S128"
target triple = "x86_64-pc-linux-gnu"

; Function Attrs: nounwind uwtable
define double @Cudd_CountPathsToNonZero(ptr noundef %0) #0 {
  %2 = alloca double, align 8
  %3 = alloca ptr, align 8
  %4 = alloca ptr, align 8
  %5 = alloca double, align 8
  store ptr %0, ptr %3, align 8
  %6 = call ptr @st__init_table(ptr noundef @st__ptrcmp, ptr noundef @st__ptrhash)
  store ptr %6, ptr %4, align 8
  %7 = load ptr, ptr %4, align 8
  %8 = icmp eq ptr %7, null
  br i1 %8, label %9, label %10

9:                                                ; preds = %1
  store double -1.000000e+00, ptr %2, align 8
  br label %18

10:                                               ; preds = %1
  %11 = load ptr, ptr %3, align 8
  %12 = load ptr, ptr %4, align 8
  %13 = call double @ddCountPathsToNonZero(ptr noundef %11, ptr noundef %12)
  store double %13, ptr %5, align 8
  %14 = load ptr, ptr %4, align 8
  %15 = call i32 @st__foreach(ptr noundef %14, ptr noundef @cuddStCountfree, ptr noundef null)
  %16 = load ptr, ptr %4, align 8
  call void @st__free_table(ptr noundef %16)
  %17 = load double, ptr %5, align 8
  store double %17, ptr %2, align 8
  br label %18

18:                                               ; preds = %10, %9
  %19 = load double, ptr %2, align 8
  ret double %19
}