; Function Attrs: nounwind uwtable
define double @Cudd_CountPathsToNonZero(ptr noundef %0) local_unnamed_addr #0 {
  %2 = tail call ptr @st__init_table(ptr noundef nonnull @st__ptrcmp, ptr noundef nonnull @st__ptrhash) #23
  %3 = icmp eq ptr %2, null
  br i1 %3, label %7, label %4

4:                                                ; preds = %1
  %5 = tail call fastcc double @ddCountPathsToNonZero(ptr noundef %0, ptr noundef %2)
  %6 = tail call i32 @st__foreach(ptr noundef nonnull %2, ptr noundef nonnull @cuddStCountfree, ptr noundef null) #23
  tail call void @st__free_table(ptr noundef nonnull %2) #23
  br label %7

7:                                                ; preds = %1, %4
  %.0 = phi double [ %5, %4 ], [ -1.000000e+00, %1 ]
  ret double %.0
}